(lp1
(dp2
S'train_loss'
p3
cnumpy.core.multiarray
scalar
p4
(cnumpy
dtype
p5
(S'f8'
I0
I1
tRp6
(I3
S'<'
NNNI-1
I-1
I0
tbS'\x0c\x02+7\xd5\x03\xa0?'
tRp7
sS'valid_loss_best'
p8
g4
(g5
(S'b1'
I0
I1
tRp9
(I3
S'|'
NNNI-1
I-1
I0
tbS'\x01'
tRp10
sS'valid_accuracy'
p11
g4
(g6
S'u\x93\x18DZ<\x94?'
tRp12
sS'train_loss_best'
p13
g10
sS'epoch'
p14
I1
sS'valid_loss'
p15
g4
(g6
S'u\x93\x18DZ<\x94?'
tRp16
sS'dur'
p17
F60.987897157669067
sa.